; Function Attrs: mustprogress uwtable
define internal noundef range(i32 -1, 65536) i32 @_ZL26replaceableIteratorCurrentP13UCharIterator(ptr noundef readonly captures(none) %0) #0 {
  %2 = getelementptr inbounds nuw i8, ptr %0, i64 16
  %3 = load i32, ptr %2, align 8, !tbaa !28
  %4 = getelementptr inbounds nuw i8, ptr %0, i64 20
  %5 = load i32, ptr %4, align 4, !tbaa !13
  %6 = icmp slt i32 %3, %5
  br i1 %6, label %7, label %14

7:                                                ; preds = %1
  %8 = load ptr, ptr %0, align 8, !tbaa !10
  %9 = load ptr, ptr %8, align 8, !tbaa !17
  %10 = getelementptr inbounds nuw i8, ptr %9, i64 72
  %11 = load ptr, ptr %10, align 8
  %12 = tail call noundef zeroext i16 %11(ptr noundef nonnull align 8 dereferenceable(8) %8, i32 noundef %3)
  %13 = zext i16 %12 to i32
  br label %14

14:                                               ; preds = %1, %7
  %.0 = phi i32 [ %13, %7 ], [ -1, %1 ]
  ret i32 %.0
}